target datalayout = "e-m:e-p270:32:32-p271:32:32-p272:64:64-i64:64-i128:128-f80:128-n8:16:32:64-S128"
target triple = "x86_64-pc-linux-gnu"

%struct.VariableStatData = type { ptr, ptr, ptr, ptr, i32, i32, i32, i8, i8 }
%struct.AttStatsSlot = type { i32, i32, i32, ptr, i32, ptr, i32, ptr, ptr }
%struct.FmgrInfo = type { ptr, i32, i16, i8, i8, i8, ptr, ptr, ptr }
%struct.FormData_pg_statistic = type { i32, i16, i8, float, i32, float, i16, i16, i16, i16, i16, i32, i32, i32, i32, i32, i32, i32, i32, i32, i32 }
%struct.HeapTupleData = type { i32, %struct.ItemPointerData, i32, ptr }
%struct.ItemPointerData = type { %struct.BlockIdData, i16 }
%struct.BlockIdData = type { i16, i16 }
%struct.HeapTupleHeaderData = type { %union.anon.4, %struct.ItemPointerData, i16, i16, i8, [0 x i8] }
%union.anon.4 = type { %struct.HeapTupleFields }
%struct.HeapTupleFields = type { i32, i32, %union.anon.5 }
%union.anon.5 = type { i32 }

@.str.1 = private unnamed_addr constant [11 x i8] c"selfuncs.c\00", align 1
@.str.7 = private unnamed_addr constant [60 x i8] c"not using statistics because function \22%s\22 is not leakproof\00", align 1
@__func__.statistic_proc_security_check = private unnamed_addr constant [30 x i8] c"statistic_proc_security_check\00", align 1

; Function Attrs: inlinehint nounwind uwtable
define internal ptr @GETSTRUCT(ptr noundef %0) #1 {
  %2 = alloca ptr, align 8
  store ptr %0, ptr %2, align 8
  %3 = load ptr, ptr %2, align 8
  %4 = getelementptr inbounds nuw %struct.HeapTupleData, ptr %3, i32 0, i32 3
  %5 = load ptr, ptr %4, align 8
  %6 = load ptr, ptr %2, align 8
  %7 = getelementptr inbounds nuw %struct.HeapTupleData, ptr %6, i32 0, i32 3
  %8 = load ptr, ptr %7, align 8
  %9 = getelementptr inbounds nuw %struct.HeapTupleHeaderData, ptr %8, i32 0, i32 4
  %10 = load i8, ptr %9, align 2
  %11 = zext i8 %10 to i32
  %12 = sext i32 %11 to i64
  %13 = getelementptr inbounds i8, ptr %5, i64 %12
  ret ptr %13
}

; Function Attrs: nounwind uwtable
define dso_local zeroext i1 @statistic_proc_security_check(ptr noundef %0, i32 noundef %1) #0 {
  %3 = alloca i1, align 1
  %4 = alloca ptr, align 8
  %5 = alloca i32, align 4
  store ptr %0, ptr %4, align 8
  store i32 %1, ptr %5, align 4
  %6 = load ptr, ptr %4, align 8
  %7 = getelementptr inbounds nuw %struct.VariableStatData, ptr %6, i32 0, i32 8
  %8 = load i8, ptr %7, align 1, !range !4, !noundef !5
  %9 = trunc i8 %8 to i1
  br i1 %9, label %10, label %11

10:                                               ; preds = %2
  store i1 true, ptr %3, align 1
  br label %31

11:                                               ; preds = %2
  %12 = load i32, ptr %5, align 4
  %13 = icmp ne i32 %12, 0
  br i1 %13, label %15, label %14

14:                                               ; preds = %11
  store i1 false, ptr %3, align 1
  br label %31

15:                                               ; preds = %11
  %16 = load i32, ptr %5, align 4
  %17 = call zeroext i1 @get_func_leakproof(i32 noundef %16)
  br i1 %17, label %18, label %19

18:                                               ; preds = %15
  store i1 true, ptr %3, align 1
  br label %31

19:                                               ; preds = %15
  br label %20

20:                                               ; preds = %19
  br i1 false, label %21, label %23

21:                                               ; preds = %20
  %22 = call zeroext i1 @errstart_cold(i32 noundef 13, ptr noundef null) #11
  br i1 %22, label %25, label %29

23:                                               ; preds = %20
  %24 = call zeroext i1 @errstart(i32 noundef 13, ptr noundef null)
  br i1 %24, label %25, label %29

25:                                               ; preds = %23, %21
  %26 = load i32, ptr %5, align 4
  %27 = call ptr @get_func_name(i32 noundef %26)
  %28 = call i32 (ptr, ...) @errmsg_internal(ptr noundef @.str.7, ptr noundef %27)
  call void @errfinish(ptr noundef @.str.1, i32 noundef 5782, ptr noundef @__func__.statistic_proc_security_check)
  br label %29

29:                                               ; preds = %25, %23, %21
  br label %30

30:                                               ; preds = %29
  store i1 false, ptr %3, align 1
  br label %31

31:                                               ; preds = %30, %18, %14, %10
  %32 = load i1, ptr %3, align 1
  ret i1 %32
}

; Function Attrs: nounwind uwtable
define internal zeroext i1 @get_variable_range(ptr noundef %0, ptr noundef %1, i32 noundef %2, i32 noundef %3, ptr noundef %4, ptr noundef %5) #0 {
  %7 = alloca i1, align 1
  %8 = alloca ptr, align 8
  %9 = alloca ptr, align 8
  %10 = alloca i32, align 4
  %11 = alloca i32, align 4
  %12 = alloca ptr, align 8
  %13 = alloca ptr, align 8
  %14 = alloca i64, align 8
  %15 = alloca i64, align 8
  %16 = alloca i8, align 1
  %17 = alloca i16, align 2
  %18 = alloca i8, align 1
  %19 = alloca i32, align 4
  %20 = alloca %struct.FmgrInfo, align 8
  %21 = alloca %struct.AttStatsSlot, align 8
  %22 = alloca i32, align 4
  %23 = alloca i8, align 1
  %24 = alloca double, align 8
  %25 = alloca double, align 8
  %26 = alloca i32, align 4
  store ptr %0, ptr %8, align 8
  store ptr %1, ptr %9, align 8
  store i32 %2, ptr %10, align 4
  store i32 %3, ptr %11, align 4
  store ptr %4, ptr %12, align 8
  store ptr %5, ptr %13, align 8
  call void @llvm.lifetime.start.p0(i64 8, ptr %14) #10
  store i64 0, ptr %14, align 8
  call void @llvm.lifetime.start.p0(i64 8, ptr %15) #10
  store i64 0, ptr %15, align 8
  call void @llvm.lifetime.start.p0(i64 1, ptr %16) #10
  store i8 0, ptr %16, align 1
  call void @llvm.lifetime.start.p0(i64 2, ptr %17) #10
  call void @llvm.lifetime.start.p0(i64 1, ptr %18) #10
  call void @llvm.lifetime.start.p0(i64 4, ptr %19) #10
  call void @llvm.lifetime.start.p0(i64 48, ptr %20) #10
  call void @llvm.lifetime.start.p0(i64 64, ptr %21) #10
  %27 = load ptr, ptr %9, align 8
  %28 = getelementptr inbounds nuw %struct.VariableStatData, ptr %27, i32 0, i32 2
  %29 = load ptr, ptr %28, align 8
  %30 = icmp ne ptr %29, null
  br i1 %30, label %32, label %31

31:                                               ; preds = %6
  store i1 false, ptr %7, align 1
  store i32 1, ptr %22, align 4
  br label %159

32:                                               ; preds = %6
  %33 = load ptr, ptr %9, align 8
  %34 = load i32, ptr %10, align 4
  %35 = call i32 @get_opcode(i32 noundef %34)
  store i32 %35, ptr %19, align 4
  %36 = call zeroext i1 @statistic_proc_security_check(ptr noundef %33, i32 noundef %35)
  br i1 %36, label %38, label %37

37:                                               ; preds = %32
  store i1 false, ptr %7, align 1
  store i32 1, ptr %22, align 4
  br label %159

38:                                               ; preds = %32
  %39 = getelementptr inbounds nuw %struct.FmgrInfo, ptr %20, i32 0, i32 1
  store i32 0, ptr %39, align 8
  %40 = load ptr, ptr %9, align 8
  %41 = getelementptr inbounds nuw %struct.VariableStatData, ptr %40, i32 0, i32 5
  %42 = load i32, ptr %41, align 4
  call void @get_typlenbyval(i32 noundef %42, ptr noundef %17, ptr noundef %18)
  %43 = load ptr, ptr %9, align 8
  %44 = getelementptr inbounds nuw %struct.VariableStatData, ptr %43, i32 0, i32 2
  %45 = load ptr, ptr %44, align 8
  %46 = load i32, ptr %10, align 4
  %47 = call zeroext i1 @get_attstatsslot(ptr noundef %21, ptr noundef %45, i32 noundef 2, i32 noundef %46, i32 noundef 1)
  br i1 %47, label %48, label %81

48:                                               ; preds = %38
  %49 = getelementptr inbounds nuw %struct.AttStatsSlot, ptr %21, i32 0, i32 1
  %50 = load i32, ptr %49, align 4
  %51 = load i32, ptr %11, align 4
  %52 = icmp eq i32 %50, %51
  br i1 %52, label %53, label %80

53:                                               ; preds = %48
  %54 = getelementptr inbounds nuw %struct.AttStatsSlot, ptr %21, i32 0, i32 4
  %55 = load i32, ptr %54, align 8
  %56 = icmp sgt i32 %55, 0
  br i1 %56, label %57, label %80

57:                                               ; preds = %53
  %58 = getelementptr inbounds nuw %struct.AttStatsSlot, ptr %21, i32 0, i32 3
  %59 = load ptr, ptr %58, align 8
  %60 = getelementptr inbounds i64, ptr %59, i64 0
  %61 = load i64, ptr %60, align 8
  %62 = load i8, ptr %18, align 1, !range !4, !noundef !5
  %63 = trunc i8 %62 to i1
  %64 = load i16, ptr %17, align 2
  %65 = sext i16 %64 to i32
  %66 = call i64 @datumCopy(i64 noundef %61, i1 noundef zeroext %63, i32 noundef %65)
  store i64 %66, ptr %14, align 8
  %67 = getelementptr inbounds nuw %struct.AttStatsSlot, ptr %21, i32 0, i32 3
  %68 = load ptr, ptr %67, align 8
  %69 = getelementptr inbounds nuw %struct.AttStatsSlot, ptr %21, i32 0, i32 4
  %70 = load i32, ptr %69, align 8
  %71 = sub i32 %70, 1
  %72 = sext i32 %71 to i64
  %73 = getelementptr inbounds i64, ptr %68, i64 %72
  %74 = load i64, ptr %73, align 8
  %75 = load i8, ptr %18, align 1, !range !4, !noundef !5
  %76 = trunc i8 %75 to i1
  %77 = load i16, ptr %17, align 2
  %78 = sext i16 %77 to i32
  %79 = call i64 @datumCopy(i64 noundef %74, i1 noundef zeroext %76, i32 noundef %78)
  store i64 %79, ptr %15, align 8
  store i8 1, ptr %16, align 1
  br label %80

80:                                               ; preds = %57, %53, %48
  call void @free_attstatsslot(ptr noundef %21)
  br label %81

81:                                               ; preds = %80, %38
  %82 = load i8, ptr %16, align 1, !range !4, !noundef !5
  %83 = trunc i8 %82 to i1
  br i1 %83, label %95, label %84

84:                                               ; preds = %81
  %85 = load ptr, ptr %9, align 8
  %86 = getelementptr inbounds nuw %struct.VariableStatData, ptr %85, i32 0, i32 2
  %87 = load ptr, ptr %86, align 8
  %88 = call zeroext i1 @get_attstatsslot(ptr noundef %21, ptr noundef %87, i32 noundef 2, i32 noundef 0, i32 noundef 1)
  br i1 %88, label %89, label %95

89:                                               ; preds = %84
  %90 = load i32, ptr %19, align 4
  %91 = load i32, ptr %11, align 4
  %92 = load i16, ptr %17, align 2
  %93 = load i8, ptr %18, align 1, !range !4, !noundef !5
  %94 = trunc i8 %93 to i1
  call void @get_stats_slot_range(ptr noundef %21, i32 noundef %90, ptr noundef %20, i32 noundef %91, i16 noundef signext %92, i1 noundef zeroext %94, ptr noundef %14, ptr noundef %15, ptr noundef %16)
  call void @free_attstatsslot(ptr noundef %21)
  br label %95

95:                                               ; preds = %89, %84, %81
  %96 = load ptr, ptr %9, align 8
  %97 = getelementptr inbounds nuw %struct.VariableStatData, ptr %96, i32 0, i32 2
  %98 = load ptr, ptr %97, align 8
  %99 = load i8, ptr %16, align 1, !range !4, !noundef !5
  %100 = trunc i8 %99 to i1
  %101 = select i1 %100, i32 1, i32 3
  %102 = call zeroext i1 @get_attstatsslot(ptr noundef %21, ptr noundef %98, i32 noundef 1, i32 noundef 0, i32 noundef %101)
  br i1 %102, label %103, label %152

103:                                              ; preds = %95
  call void @llvm.lifetime.start.p0(i64 1, ptr %23) #10
  %104 = load i8, ptr %16, align 1, !range !4, !noundef !5
  %105 = trunc i8 %104 to i1
  %106 = zext i1 %105 to i8
  store i8 %106, ptr %23, align 1
  %107 = load i8, ptr %16, align 1, !range !4, !noundef !5
  %108 = trunc i8 %107 to i1
  br i1 %108, label %142, label %109

109:                                              ; preds = %103
  call void @llvm.lifetime.start.p0(i64 8, ptr %24) #10
  store double 0.000000e+00, ptr %24, align 8
  call void @llvm.lifetime.start.p0(i64 8, ptr %25) #10
  call void @llvm.lifetime.start.p0(i64 4, ptr %26) #10
  store i32 0, ptr %26, align 4
  br label %110

110:                                              ; preds = %125, %109
  %111 = load i32, ptr %26, align 4
  %112 = getelementptr inbounds nuw %struct.AttStatsSlot, ptr %21, i32 0, i32 6
  %113 = load i32, ptr %112, align 8
  %114 = icmp slt i32 %111, %113
  br i1 %114, label %115, label %128

115:                                              ; preds = %110
  %116 = getelementptr inbounds nuw %struct.AttStatsSlot, ptr %21, i32 0, i32 5
  %117 = load ptr, ptr %116, align 8
  %118 = load i32, ptr %26, align 4
  %119 = sext i32 %118 to i64
  %120 = getelementptr inbounds float, ptr %117, i64 %119
  %121 = load float, ptr %120, align 4
  %122 = fpext float %121 to double
  %123 = load double, ptr %24, align 8
  %124 = fadd double %123, %122
  store double %124, ptr %24, align 8
  br label %125

125:                                              ; preds = %115
  %126 = load i32, ptr %26, align 4
  %127 = add i32 %126, 1
  store i32 %127, ptr %26, align 4
  br label %110, !llvm.loop !31

128:                                              ; preds = %110
  %129 = load ptr, ptr %9, align 8
  %130 = getelementptr inbounds nuw %struct.VariableStatData, ptr %129, i32 0, i32 2
  %131 = load ptr, ptr %130, align 8
  %132 = call ptr @GETSTRUCT(ptr noundef %131)
  %133 = getelementptr inbounds nuw %struct.FormData_pg_statistic, ptr %132, i32 0, i32 3
  %134 = load float, ptr %133, align 4
  %135 = fpext float %134 to double
  store double %135, ptr %25, align 8
  %136 = load double, ptr %24, align 8
  %137 = load double, ptr %25, align 8
  %138 = fadd double %136, %137
  %139 = fcmp ogt double %138, 9.999900e-01
  br i1 %139, label %140, label %141

140:                                              ; preds = %128
  store i8 1, ptr %23, align 1
  br label %141

141:                                              ; preds = %140, %128
  call void @llvm.lifetime.end.p0(i64 4, ptr %26) #10
  call void @llvm.lifetime.end.p0(i64 8, ptr %25) #10
  call void @llvm.lifetime.end.p0(i64 8, ptr %24) #10
  br label %142

142:                                              ; preds = %141, %103
  %143 = load i8, ptr %23, align 1, !range !4, !noundef !5
  %144 = trunc i8 %143 to i1
  br i1 %144, label %145, label %151

145:                                              ; preds = %142
  %146 = load i32, ptr %19, align 4
  %147 = load i32, ptr %11, align 4
  %148 = load i16, ptr %17, align 2
  %149 = load i8, ptr %18, align 1, !range !4, !noundef !5
  %150 = trunc i8 %149 to i1
  call void @get_stats_slot_range(ptr noundef %21, i32 noundef %146, ptr noundef %20, i32 noundef %147, i16 noundef signext %148, i1 noundef zeroext %150, ptr noundef %14, ptr noundef %15, ptr noundef %16)
  br label %151

151:                                              ; preds = %145, %142
  call void @free_attstatsslot(ptr noundef %21)
  call void @llvm.lifetime.end.p0(i64 1, ptr %23) #10
  br label %152

152:                                              ; preds = %151, %95
  %153 = load i64, ptr %14, align 8
  %154 = load ptr, ptr %12, align 8
  store i64 %153, ptr %154, align 8
  %155 = load i64, ptr %15, align 8
  %156 = load ptr, ptr %13, align 8
  store i64 %155, ptr %156, align 8
  %157 = load i8, ptr %16, align 1, !range !4, !noundef !5
  %158 = trunc i8 %157 to i1
  store i1 %158, ptr %7, align 1
  store i32 1, ptr %22, align 4
  br label %159

159:                                              ; preds = %152, %37, %31
  call void @llvm.lifetime.end.p0(i64 64, ptr %21) #10
  call void @llvm.lifetime.end.p0(i64 48, ptr %20) #10
  call void @llvm.lifetime.end.p0(i64 4, ptr %19) #10
  call void @llvm.lifetime.end.p0(i64 1, ptr %18) #10
  call void @llvm.lifetime.end.p0(i64 2, ptr %17) #10
  call void @llvm.lifetime.end.p0(i64 1, ptr %16) #10
  call void @llvm.lifetime.end.p0(i64 8, ptr %15) #10
  call void @llvm.lifetime.end.p0(i64 8, ptr %14) #10
  %160 = load i1, ptr %7, align 1
  ret i1 %160
}