; Function Attrs: nounwind uwtable
define internal fastcc zeroext i1 @get_variable_range(ptr noundef nonnull readonly captures(none) %0, i32 noundef %1, i32 noundef %2, ptr noundef nonnull writeonly captures(none) %3, ptr noundef nonnull writeonly captures(none) %4) unnamed_addr #0 {
  %6 = alloca i64, align 8
  %7 = alloca i64, align 8
  %8 = alloca i8, align 1
  %9 = alloca i16, align 2
  %10 = alloca i8, align 1
  %11 = alloca %struct.FmgrInfo, align 8
  %12 = alloca %struct.AttStatsSlot, align 8
  call void @llvm.lifetime.start.p0(i64 8, ptr nonnull %6) #12
  store i64 0, ptr %6, align 8
  call void @llvm.lifetime.start.p0(i64 8, ptr nonnull %7) #12
  store i64 0, ptr %7, align 8
  call void @llvm.lifetime.start.p0(i64 1, ptr nonnull %8) #12
  store i8 0, ptr %8, align 1
  call void @llvm.lifetime.start.p0(i64 2, ptr nonnull %9) #12
  call void @llvm.lifetime.start.p0(i64 1, ptr nonnull %10) #12
  call void @llvm.lifetime.start.p0(i64 48, ptr nonnull %11) #12
  call void @llvm.lifetime.start.p0(i64 64, ptr nonnull %12) #12
  %13 = getelementptr inbounds nuw i8, ptr %0, i64 16
  %14 = load ptr, ptr %13, align 8
  %.not = icmp eq ptr %14, null
  br i1 %.not, label %statistic_proc_security_check.exit.thread, label %15

15:                                               ; preds = %5
  %16 = tail call i32 @get_opcode(i32 noundef %1) #12
  %17 = getelementptr inbounds nuw i8, ptr %0, i64 45
  %18 = load i8, ptr %17, align 1, !range !4, !noundef !5
  %19 = trunc nuw i8 %18 to i1
  br i1 %19, label %statistic_proc_security_check.exit, label %20

20:                                               ; preds = %15
  %.not.i = icmp eq i32 %16, 0
  br i1 %.not.i, label %statistic_proc_security_check.exit.thread, label %21

21:                                               ; preds = %20
  %22 = tail call zeroext i1 @get_func_leakproof(i32 noundef %16) #12
  br i1 %22, label %statistic_proc_security_check.exit, label %23

23:                                               ; preds = %21
  %24 = tail call zeroext i1 @errstart(i32 noundef 13, ptr noundef null) #12
  br i1 %24, label %25, label %statistic_proc_security_check.exit.thread

25:                                               ; preds = %23
  %26 = tail call ptr @get_func_name(i32 noundef %16) #12
  %27 = tail call i32 (ptr, ...) @errmsg_internal(ptr noundef nonnull @.str.7, ptr noundef %26) #12
  tail call void @errfinish(ptr noundef nonnull @.str.1, i32 noundef 5782, ptr noundef nonnull @__func__.statistic_proc_security_check) #12
  br label %statistic_proc_security_check.exit.thread

statistic_proc_security_check.exit:               ; preds = %21, %15
  %28 = getelementptr inbounds nuw i8, ptr %11, i64 8
  store i32 0, ptr %28, align 8
  %29 = getelementptr inbounds nuw i8, ptr %0, i64 36
  %30 = load i32, ptr %29, align 4
  call void @get_typlenbyval(i32 noundef %30, ptr noundef nonnull %9, ptr noundef nonnull %10) #12
  %31 = load ptr, ptr %13, align 8
  %32 = call zeroext i1 @get_attstatsslot(ptr noundef nonnull %12, ptr noundef %31, i32 noundef 2, i32 noundef %1, i32 noundef 1) #12
  br i1 %32, label %33, label %.thread10

33:                                               ; preds = %statistic_proc_security_check.exit
  %34 = getelementptr inbounds nuw i8, ptr %12, i64 4
  %35 = load i32, ptr %34, align 4
  %36 = icmp eq i32 %35, %2
  %37 = getelementptr inbounds nuw i8, ptr %12, i64 24
  %38 = load i32, ptr %37, align 8
  %39 = icmp sgt i32 %38, 0
  %or.cond = select i1 %36, i1 %39, i1 false
  br i1 %or.cond, label %.thread11, label %59

.thread11:                                        ; preds = %33
  %40 = getelementptr inbounds nuw i8, ptr %12, i64 16
  %41 = load ptr, ptr %40, align 8
  %42 = load i64, ptr %41, align 8
  %43 = load i8, ptr %10, align 1, !range !4, !noundef !5
  %44 = trunc nuw i8 %43 to i1
  %45 = load i16, ptr %9, align 2
  %46 = sext i16 %45 to i32
  %47 = call i64 @datumCopy(i64 noundef %42, i1 noundef zeroext %44, i32 noundef %46) #12
  store i64 %47, ptr %6, align 8
  %48 = load ptr, ptr %40, align 8
  %49 = load i32, ptr %37, align 8
  %50 = add i32 %49, -1
  %51 = sext i32 %50 to i64
  %52 = getelementptr inbounds i64, ptr %48, i64 %51
  %53 = load i64, ptr %52, align 8
  %54 = load i8, ptr %10, align 1, !range !4, !noundef !5
  %55 = trunc nuw i8 %54 to i1
  %56 = load i16, ptr %9, align 2
  %57 = sext i16 %56 to i32
  %58 = call i64 @datumCopy(i64 noundef %53, i1 noundef zeroext %55, i32 noundef %57) #12
  store i64 %58, ptr %7, align 8
  store i8 1, ptr %8, align 1
  call void @free_attstatsslot(ptr noundef nonnull %12) #12
  br label %67

59:                                               ; preds = %33
  call void @free_attstatsslot(ptr noundef nonnull %12) #12
  br label %.thread10

.thread10:                                        ; preds = %statistic_proc_security_check.exit, %59
  %60 = load ptr, ptr %13, align 8
  %61 = call zeroext i1 @get_attstatsslot(ptr noundef nonnull %12, ptr noundef %60, i32 noundef 2, i32 noundef 0, i32 noundef 1) #12
  br i1 %61, label %62, label %67

62:                                               ; preds = %.thread10
  %63 = load i16, ptr %9, align 2
  %64 = load i8, ptr %10, align 1, !range !4, !noundef !5
  %65 = trunc nuw i8 %64 to i1
  call fastcc void @get_stats_slot_range(ptr noundef %12, i32 noundef %16, ptr noundef %11, i32 noundef %2, i16 noundef signext %63, i1 noundef zeroext %65, ptr noundef %6, ptr noundef %7, ptr noundef %8)
  call void @free_attstatsslot(ptr noundef nonnull %12) #12
  %.pre = load i8, ptr %8, align 1, !range !4
  %66 = trunc nuw i8 %.pre to i1
  br label %67

67:                                               ; preds = %.thread11, %62, %.thread10
  %68 = phi i1 [ %66, %62 ], [ false, %.thread10 ], [ true, %.thread11 ]
  %69 = load ptr, ptr %13, align 8
  %70 = select i1 %68, i32 1, i32 3
  %71 = call zeroext i1 @get_attstatsslot(ptr noundef nonnull %12, ptr noundef %69, i32 noundef 1, i32 noundef 0, i32 noundef %70) #12
  br i1 %71, label %72, label %98

72:                                               ; preds = %67
  br i1 %68, label %.thread, label %.preheader

.preheader:                                       ; preds = %72
  %73 = getelementptr inbounds nuw i8, ptr %12, i64 40
  %74 = load i32, ptr %73, align 8
  %75 = icmp sgt i32 %74, 0
  br i1 %75, label %.lr.ph, label %._crit_edge

.lr.ph:                                           ; preds = %.preheader
  %76 = getelementptr inbounds nuw i8, ptr %12, i64 32
  %77 = load ptr, ptr %76, align 8
  %wide.trip.count = zext nneg i32 %74 to i64
  br label %78

78:                                               ; preds = %.lr.ph, %78
  %indvars.iv = phi i64 [ 0, %.lr.ph ], [ %indvars.iv.next, %78 ]
  %.0263 = phi double [ 0.000000e+00, %.lr.ph ], [ %82, %78 ]
  %79 = getelementptr inbounds nuw float, ptr %77, i64 %indvars.iv
  %80 = load float, ptr %79, align 4
  %81 = fpext float %80 to double
  %82 = fadd double %.0263, %81
  %indvars.iv.next = add nuw nsw i64 %indvars.iv, 1
  %exitcond.not = icmp eq i64 %indvars.iv.next, %wide.trip.count
  br i1 %exitcond.not, label %._crit_edge, label %78, !llvm.loop !33

._crit_edge:                                      ; preds = %78, %.preheader
  %.026.lcssa = phi double [ 0.000000e+00, %.preheader ], [ %82, %78 ]
  %83 = load ptr, ptr %13, align 8
  %84 = getelementptr i8, ptr %83, i64 16
  %.val = load ptr, ptr %84, align 8
  %85 = getelementptr inbounds nuw i8, ptr %.val, i64 22
  %86 = load i8, ptr %85, align 2
  %87 = zext i8 %86 to i64
  %88 = getelementptr inbounds nuw i8, ptr %.val, i64 %87
  %89 = getelementptr inbounds nuw i8, ptr %88, i64 8
  %90 = load float, ptr %89, align 4
  %91 = fpext float %90 to double
  %92 = fadd double %.026.lcssa, %91
  %93 = fcmp ogt double %92, 9.999900e-01
  br i1 %93, label %.thread, label %97

.thread:                                          ; preds = %72, %._crit_edge
  %94 = load i16, ptr %9, align 2
  %95 = load i8, ptr %10, align 1, !range !4, !noundef !5
  %96 = trunc nuw i8 %95 to i1
  call fastcc void @get_stats_slot_range(ptr noundef %12, i32 noundef %16, ptr noundef %11, i32 noundef %2, i16 noundef signext %94, i1 noundef zeroext %96, ptr noundef %6, ptr noundef %7, ptr noundef %8)
  %.pre6.pre = load i8, ptr %8, align 1, !range !4
  %.pre9 = trunc nuw i8 %.pre6.pre to i1
  br label %97

97:                                               ; preds = %.thread, %._crit_edge
  %.pre8.pre-phi = phi i1 [ %.pre9, %.thread ], [ false, %._crit_edge ]
  call void @free_attstatsslot(ptr noundef nonnull %12) #12
  br label %98

98:                                               ; preds = %97, %67
  %.pre-phi = phi i1 [ %.pre8.pre-phi, %97 ], [ %68, %67 ]
  %99 = load i64, ptr %6, align 8
  store i64 %99, ptr %3, align 8
  %100 = load i64, ptr %7, align 8
  store i64 %100, ptr %4, align 8
  br label %statistic_proc_security_check.exit.thread

statistic_proc_security_check.exit.thread:        ; preds = %25, %23, %20, %5, %98
  %.025 = phi i1 [ %.pre-phi, %98 ], [ false, %5 ], [ false, %20 ], [ false, %23 ], [ false, %25 ]
  call void @llvm.lifetime.end.p0(i64 64, ptr nonnull %12) #12
  call void @llvm.lifetime.end.p0(i64 48, ptr nonnull %11) #12
  call void @llvm.lifetime.end.p0(i64 1, ptr nonnull %10) #12
  call void @llvm.lifetime.end.p0(i64 2, ptr nonnull %9) #12
  call void @llvm.lifetime.end.p0(i64 1, ptr nonnull %8) #12
  call void @llvm.lifetime.end.p0(i64 8, ptr nonnull %7) #12
  call void @llvm.lifetime.end.p0(i64 8, ptr nonnull %6) #12
  ret i1 %.025
}